; Function Attrs: nounwind uwtable
define dso_local zeroext i1 @gres_node_state_list_has_alloc_gres(ptr noundef %0) local_unnamed_addr #2 {
  %.not = icmp eq ptr %0, null
  br i1 %.not, label %5, label %2

2:                                                ; preds = %1
  %3 = tail call ptr @list_find_first(ptr noundef nonnull %0, ptr noundef nonnull @_find_node_state_with_alloc_gres, ptr noundef null) #28
  %4 = icmp ne ptr %3, null
  br label %5

5:                                                ; preds = %1, %2
  %.0 = phi i1 [ %4, %2 ], [ false, %1 ]
  ret i1 %.0
}